target datalayout = "e-m:e-p270:32:32-p271:32:32-p272:64:64-i64:64-i128:128-f80:128-n8:16:32:64-S128"
target triple = "x86_64-pc-linux-gnu"

; Function Attrs: nounwind uwtable
define internal float @stbir__filter_trapezoid(float noundef %0, float noundef %1, ptr noundef %2) #0 {
  %4 = alloca float, align 4
  %5 = alloca float, align 4
  %6 = alloca float, align 4
  %7 = alloca ptr, align 8
  %8 = alloca float, align 4
  %9 = alloca float, align 4
  %10 = alloca i32, align 4
  %11 = alloca float, align 4
  store float %0, ptr %5, align 4
  store float %1, ptr %6, align 4
  store ptr %2, ptr %7, align 8
  call void @llvm.lifetime.start.p0(i64 4, ptr %8) #19
  %12 = load float, ptr %6, align 4
  %13 = fdiv float %12, 2.000000e+00
  store float %13, ptr %8, align 4
  call void @llvm.lifetime.start.p0(i64 4, ptr %9) #19
  %14 = load float, ptr %8, align 4
  %15 = fadd float 5.000000e-01, %14
  store float %15, ptr %9, align 4
  %16 = load float, ptr %5, align 4
  %17 = fcmp olt float %16, 0.000000e+00
  br i1 %17, label %18, label %21

18:                                               ; preds = %3
  %19 = load float, ptr %5, align 4
  %20 = fneg float %19
  store float %20, ptr %5, align 4
  br label %21

21:                                               ; preds = %18, %3
  %22 = load float, ptr %5, align 4
  %23 = load float, ptr %9, align 4
  %24 = fcmp oge float %22, %23
  br i1 %24, label %25, label %26

25:                                               ; preds = %21
  store float 0.000000e+00, ptr %4, align 4
  store i32 1, ptr %10, align 4
  br label %40

26:                                               ; preds = %21
  call void @llvm.lifetime.start.p0(i64 4, ptr %11) #19
  %27 = load float, ptr %8, align 4
  %28 = fsub float 5.000000e-01, %27
  store float %28, ptr %11, align 4
  %29 = load float, ptr %5, align 4
  %30 = load float, ptr %11, align 4
  %31 = fcmp ole float %29, %30
  br i1 %31, label %32, label %33

32:                                               ; preds = %26
  store float 1.000000e+00, ptr %4, align 4
  store i32 1, ptr %10, align 4
  br label %39

33:                                               ; preds = %26
  %34 = load float, ptr %9, align 4
  %35 = load float, ptr %5, align 4
  %36 = fsub float %34, %35
  %37 = load float, ptr %6, align 4
  %38 = fdiv float %36, %37
  store float %38, ptr %4, align 4
  store i32 1, ptr %10, align 4
  br label %39

39:                                               ; preds = %33, %32
  call void @llvm.lifetime.end.p0(i64 4, ptr %11) #19
  br label %40

40:                                               ; preds = %39, %25
  call void @llvm.lifetime.end.p0(i64 4, ptr %9) #19
  call void @llvm.lifetime.end.p0(i64 4, ptr %8) #19
  %41 = load float, ptr %4, align 4
  ret float %41
}