; Function Attrs: mustprogress nofree norecurse nosync nounwind willreturn memory(none) uwtable
define internal float @stbir__filter_trapezoid(float noundef %0, float noundef %1, ptr readnone captures(none) %2) #7 {
  %4 = fmul float %1, 5.000000e-01
  %5 = fadd float %4, 5.000000e-01
  %6 = fcmp olt float %0, 0.000000e+00
  %7 = fneg float %0
  %.013 = select i1 %6, float %7, float %0
  %8 = fcmp ult float %.013, %5
  br i1 %8, label %9, label %14

9:                                                ; preds = %3
  %10 = fsub float 5.000000e-01, %4
  %11 = fcmp ugt float %.013, %10
  %12 = fsub float %5, %.013
  %13 = fdiv float %12, %1
  %.1 = select i1 %11, float %13, float 1.000000e+00
  br label %14

14:                                               ; preds = %3, %9
  %.0 = phi float [ %.1, %9 ], [ 0.000000e+00, %3 ]
  ret float %.0
}